Certificate:
    Data:
        Version: 3 (0x2)
        Serial Number: 1 (0x1)
        Signature Algorithm: sha256WithRSAEncryption
        Issuer: CN=servername
        Validity
            Not Before: Aug 24 07:08:07 2024 GMT
            Not After : Aug 19 07:08:07 2025 GMT
        Subject: C=US, ST=California, L=Mountain View, O=servername, CN=10.0.0.3
        Subject Public Key Info:
            Public Key Algorithm: rsaEncryption
                Public-Key: (2048 bit)
                Modulus:
                    00:90:5f:7f:d6:68:a6:8d:f2:83:a7:48:fd:10:35:
                    c4:61:eb:70:da:16:60:21:3f:8d:c7:bf:83:22:b0:
                    2c:fe:b9:fa:dd:38:5e:6c:12:e4:84:f3:85:a6:f4:
                    f1:ba:b5:06:cf:36:9d:7b:e2:98:70:23:07:72:12:
                    9d:e3:ab:5b:61:cd:3e:3e:ba:ee:d4:35:aa:88:bc:
                    67:0e:3a:27:06:d8:85:ea:0e:0d:48:a7:34:17:f8:
                    5e:5b:be:7e:98:a4:ff:54:a2:04:3c:64:7f:3c:0e:
                    0d:51:dd:bb:ca:36:70:78:09:25:51:5c:33:89:ff:
                    c8:94:b5:3d:67:46:c2:80:44:37:dc:5b:eb:d4:0f:
                    b1:b3:11:42:9a:7f:22:9a:76:36:87:c4:0a:5f:3f:
                    19:f2:c9:a2:20:d2:0e:33:9b:10:a7:39:25:09:ff:
                    9a:3d:4c:1a:69:ce:86:9c:84:70:95:bf:6c:70:cc:
                    17:af:bf:f3:2f:22:95:94:f9:03:6a:86:97:7d:f4:
                    69:1e:b8:88:b1:32:e9:30:7f:a3:a9:44:09:3d:36:
                    24:24:e0:d2:0a:20:bb:67:a2:da:be:39:65:09:54:
                    cd:e8:07:c2:fa:73:53:c8:29:9f:ae:7e:51:dc:53:
                    f7:68:a8:36:51:91:28:75:92:c5:df:94:c9:c0:84:
                    f2:e3
                Exponent: 65537 (0x10001)
        X509v3 extensions:
            X509v3 Basic Constraints: critical
                CA:FALSE
            X509v3 Subject Key Identifier: 
                54:9E:B6:7D:BE:62:12:C3:08:3D:A9:C9:DD:1A:A0:EB:C1:FD:08:50
            X509v3 Authority Key Identifier: 
                6E:30:87:D4:ED:A4:1D:CD:9B:5F:F5:8A:F5:EF:C1:CD:80:C4:E2:F1
            X509v3 Extended Key Usage: 
                TLS Web Server Authentication, TLS Web Client Authentication
            X509v3 Subject Alternative Name: 
                DNS:www.example.org, DNS:mail.example.org, DNS:mail.example.com, IP Address:10.0.0.3
    Signature Algorithm: sha256WithRSAEncryption
    Signature Value:
        49:2d:36:33:dd:f5:cf:43:27:a4:79:1f:68:7f:68:ae:97:5a:
        75:f8:d5:59:46:f6:df:b8:f7:a9:b6:de:69:4e:a9:3c:78:3e:
        24:b6:d4:55:ba:70:c7:bd:5d:3c:ea:b2:d3:26:c1:00:42:f4:
        b1:ce:a3:9d:82:e5:da:5e:90:fb:04:58:12:66:13:5f:87:fc:
        79:00:52:1c:59:f1:60:6f:1f:fb:5c:cc:44:6d:9f:00:1a:fd:
        18:ce:c3:8d:8d:d3:4f:d0:1d:a6:5c:d6:c7:19:c3:5f:f3:41:
        4f:c7:17:6e:5e:6e:ea:86:05:2e:85:be:76:bc:a5:56:6a:9a:
        18:6f:62:f3:6e:a9:1b:b3:58:54:e7:80:53:94:33:10:2f:2f:
        19:90:5c:83:ca:dc:60:d2:d4:c1:58:6d:d9:61:0d:18:dd:42:
        a1:1d:9d:4f:00:2c:be:ab:d8:7a:86:d0:db:e9:51:d9:8e:c2:
        ae:28:0e:f7:2e:e6:64:df:5b:b9:2b:2f:c5:8c:7c:98:03:77:
        66:c7:fa:62:0b:15:15:d8:02:e6:ff:f5:db:a2:ca:8f:04:d2:
        3e:10:c2:61:c6:c7:03:59:ef:e4:63:42:a7:b4:97:1c:ac:ad:
        d6:40:db:2d:48:a5:1e:9d:d3:67:67:fb:79:f8:12:d9:4b:ed:
        7e:3e:71:48
-----BEGIN CERTIFICATE-----
MIIDqTCCApGgAwIBAgIBATANBgkqhkiG9w0BAQsFADAVMRMwEQYDVQQDDApzZXJ2
ZXJuYW1lMB4XDTI0MDgyNDA3MDgwN1oXDTI1MDgxOTA3MDgwN1owYjELMAkGA1UE
BhMCVVMxEzARBgNVBAgMCkNhbGlmb3JuaWExFjAUBgNVBAcMDU1vdW50YWluIFZp
ZXcxEzARBgNVBAoMCnNlcnZlcm5hbWUxETAPBgNVBAMMCDEwLjAuMC4zMIIBIjAN
BgkqhkiG9w0BAQEFAAOCAQ8AMIIBCgKCAQEAkF9/1mimjfKDp0j9EDXEYetw2hZg
IT+Nx7+DIrAs/rn63ThebBLkhPOFpvTxurUGzzade+KYcCMHchKd46tbYc0+Prru
1DWqiLxnDjonBtiF6g4NSKc0F/heW75+mKT/VKIEPGR/PA4NUd27yjZweAklUVwz
if/IlLU9Z0bCgEQ33Fvr1A+xsxFCmn8imnY2h8QKXz8Z8smiINIOM5sQpzklCf+a
PUwaac6GnIRwlb9scMwXr7/zLyKVlPkDaoaXffRpHriIsTLpMH+jqUQJPTYkJODS
CiC7Z6LavjllCVTN6AfC+nNTyCmfrn5R3FP3aKg2UZEodZLF35TJwITy4wIDAQAB
o4G2MIGzMAwGA1UdEwEB/wQCMAAwHQYDVR0OBBYEFFSetn2+YhLDCD2pyd0aoOvB
/QhQMB8GA1UdIwQYMBaAFG4wh9TtpB3Nm1/1ivXvwc2AxOLxMB0GA1UdJQQWMBQG
CCsGAQUFBwMBBggrBgEFBQcDAjBEBgNVHREEPTA7gg93d3cuZXhhbXBsZS5vcmeC
EG1haWwuZXhhbXBsZS5vcmeCEG1haWwuZXhhbXBsZS5jb22HBAoAAAMwDQYJKoZI
hvcNAQELBQADggEBAEktNjPd9c9DJ6R5H2h/aK6XWnX41VlG9t+496m23mlOqTx4
PiS21FW6cMe9XTzqstMmwQBC9LHOo52C5dpekPsEWBJmE1+H/HkAUhxZ8WBvH/tc
zERtnwAa/RjOw42N00/QHaZc1scZw1/zQU/HF25ebuqGBS6Fvna8pVZqmhhvYvNu
qRuzWFTngFOUMxAvLxmQXIPK3GDS1MFYbdlhDRjdQqEdnU8ALL6r2HqG0NvpUdmO
wq4oDvcu5mTfW7krL8WMfJgDd2bH+mILFRXYAub/9duiyo8E0j4QwmHGxwNZ7+Rj
Qqe0lxysrdZA2y1IpR6d02dn+3n4EtlL7X4+cUg=
-----END CERTIFICATE-----
