Certificate:
    Data:
        Version: 3 (0x2)
        Serial Number: 1 (0x1)
        Signature Algorithm: sha256WithRSAEncryption
        Issuer: CN=QUIC Server Root CA
        Validity
            Not Before: Aug 12 08:51:23 2022 GMT
            Not After : Aug 15 08:51:23 2022 GMT
        Subject: C=US, ST=California, L=Mountain View, O=QUIC Server, CN=10.0.0.1
        Subject Public Key Info:
            Public Key Algorithm: rsaEncryption
                RSA Public-Key: (2048 bit)
                Modulus:
                    00:bf:bc:5f:1e:f0:22:77:f3:89:99:c1:a6:9d:6e:
                    a2:42:d2:7c:d1:9c:28:cc:b5:1a:6e:c3:16:13:91:
                    60:5e:9b:a7:ef:3d:72:b1:ab:2d:c6:90:e0:73:3a:
                    6e:75:a9:f3:27:96:fd:ae:36:cf:da:2a:25:e1:12:
                    87:5d:33:f3:87:6c:49:d9:da:80:8e:c3:21:8f:0e:
                    aa:6d:32:cb:40:7c:68:ef:70:5d:dd:da:a9:fc:14:
                    8d:18:72:45:44:43:e3:a1:28:aa:ec:0b:8d:4c:55:
                    ac:16:8a:0d:a4:03:7e:e8:55:7f:93:02:0a:14:1e:
                    08:0f:cc:40:12:af:d3:71:8f:cc:7f:1e:ca:34:42:
                    e9:5e:fb:ac:ef:7f:b9:6f:db:b9:ad:b5:2b:a1:48:
                    2f:67:df:be:e7:eb:4e:50:92:f0:36:1b:06:1c:c2:
                    27:66:9e:8d:13:2e:bb:c0:a2:7b:7f:f7:08:89:ef:
                    be:3c:0b:aa:32:43:99:0f:b3:db:ca:cc:ae:8a:ca:
                    0b:e3:71:6c:bd:de:bc:5a:90:dd:36:5d:aa:b6:33:
                    80:4f:97:94:ef:2e:cc:ad:44:61:66:4f:ff:f3:df:
                    5f:62:76:1c:d3:b8:94:0c:8a:82:7d:d9:69:ab:c4:
                    d3:e7:26:80:b2:79:3c:75:73:34:4a:2f:20:dd:26:
                    7a:51
                Exponent: 65537 (0x10001)
        X509v3 extensions:
            X509v3 Basic Constraints: critical
                CA:FALSE
            X509v3 Subject Key Identifier: 
                A7:D6:4F:94:C0:35:D4:84:2C:69:F2:19:7F:A2:96:D2:F4:69:6F:22
            X509v3 Authority Key Identifier: 
                keyid:2A:64:85:72:CA:66:C3:08:86:7A:80:4C:90:CF:AB:F9:47:A7:EA:A4

            X509v3 Extended Key Usage: 
                TLS Web Server Authentication, TLS Web Client Authentication
            X509v3 Subject Alternative Name: 
                DNS:www.example.org, DNS:mail.example.org, DNS:mail.example.com, IP Address:10.0.0.1
    Signature Algorithm: sha256WithRSAEncryption
         25:49:92:11:d1:d3:50:33:5a:c2:1e:f9:b0:93:b7:ca:dd:d1:
         1e:3b:6e:6b:0d:2d:65:e6:d7:39:2a:62:1f:fa:ab:b4:17:55:
         78:f9:d8:c4:e1:18:d1:27:01:80:15:64:7f:e2:87:72:1c:a9:
         8c:81:ab:b1:c5:a1:db:16:c1:5a:2a:cc:b2:14:8d:ab:41:ee:
         9f:e4:9e:e9:f7:c4:57:af:82:57:8a:d9:9c:d6:a5:27:f3:d8:
         55:1c:3a:95:f1:77:b7:54:6f:6e:5c:5b:8e:dd:b3:09:a8:0d:
         2f:ff:89:5e:48:f6:3a:25:c1:90:06:93:2b:82:11:92:bc:c0:
         7f:5a:40:b0:6c:c3:a0:f0:2f:08:56:09:e5:03:ad:28:18:8e:
         88:18:eb:e2:1f:d2:c5:ca:d1:92:4a:5f:e7:e4:ed:db:a3:f0:
         9e:de:47:e5:e2:fb:98:ee:0e:ac:34:e9:4c:69:a7:cb:f3:f4:
         a3:e6:1d:d3:15:3d:94:77:d4:b4:45:71:98:f6:bb:1e:23:6a:
         5e:9c:32:77:65:af:f9:01:0c:51:2b:90:c7:57:67:9d:13:91:
         96:08:b2:cd:6a:f1:99:f2:9d:a9:93:a6:a1:84:59:d5:93:dd:
         90:79:ad:fe:a4:31:28:27:0d:b3:b4:ec:67:f8:34:7d:3a:5f:
         26:2b:73:bb
-----BEGIN CERTIFICATE-----
MIIDszCCApugAwIBAgIBATANBgkqhkiG9w0BAQsFADAeMRwwGgYDVQQDDBNRVUlD
IFNlcnZlciBSb290IENBMB4XDTIyMDgxMjA4NTEyM1oXDTIyMDgxNTA4NTEyM1ow
YzELMAkGA1UEBhMCVVMxEzARBgNVBAgMCkNhbGlmb3JuaWExFjAUBgNVBAcMDU1v
dW50YWluIFZpZXcxFDASBgNVBAoMC1FVSUMgU2VydmVyMREwDwYDVQQDDAgxMC4w
LjAuMTCCASIwDQYJKoZIhvcNAQEBBQADggEPADCCAQoCggEBAL+8Xx7wInfziZnB
pp1uokLSfNGcKMy1Gm7DFhORYF6bp+89crGrLcaQ4HM6bnWp8yeW/a42z9oqJeES
h10z84dsSdnagI7DIY8Oqm0yy0B8aO9wXd3aqfwUjRhyRURD46EoquwLjUxVrBaK
DaQDfuhVf5MCChQeCA/MQBKv03GPzH8eyjRC6V77rO9/uW/bua21K6FIL2ffvufr
TlCS8DYbBhzCJ2aejRMuu8Cie3/3CInvvjwLqjJDmQ+z28rMrorKC+NxbL3evFqQ
3TZdqrYzgE+XlO8uzK1EYWZP//PfX2J2HNO4lAyKgn3ZaavE0+cmgLJ5PHVzNEov
IN0melECAwEAAaOBtjCBszAMBgNVHRMBAf8EAjAAMB0GA1UdDgQWBBSn1k+UwDXU
hCxp8hl/opbS9GlvIjAfBgNVHSMEGDAWgBQqZIVyymbDCIZ6gEyQz6v5R6fqpDAd
BgNVHSUEFjAUBggrBgEFBQcDAQYIKwYBBQUHAwIwRAYDVR0RBD0wO4IPd3d3LmV4
YW1wbGUub3JnghBtYWlsLmV4YW1wbGUub3JnghBtYWlsLmV4YW1wbGUuY29thwQK
AAABMA0GCSqGSIb3DQEBCwUAA4IBAQAlSZIR0dNQM1rCHvmwk7fK3dEeO25rDS1l
5tc5KmIf+qu0F1V4+djE4RjRJwGAFWR/4odyHKmMgauxxaHbFsFaKsyyFI2rQe6f
5J7p98RXr4JXitmc1qUn89hVHDqV8Xe3VG9uXFuO3bMJqA0v/4leSPY6JcGQBpMr
ghGSvMB/WkCwbMOg8C8IVgnlA60oGI6IGOviH9LFytGSSl/n5O3bo/Ce3kfl4vuY
7g6sNOlMaafL8/Sj5h3TFT2Ud9S0RXGY9rseI2penDJ3Za/5AQxRK5DHV2edE5GW
CLLNavGZ8p2pk6ahhFnVk92Qea3+pDEoJw2ztOxn+DR9Ol8mK3O7
-----END CERTIFICATE-----
