Certificate:
    Data:
        Version: 3 (0x2)
        Serial Number:
            0e:79:02:b5:f6:31:f0:92:9e:14:12:c2:51:7f:58:a2:79:27:a9:de
        Signature Algorithm: sha256WithRSAEncryption
        Issuer: CN = QUIC Server Root CA
        Validity
            Not Before: Aug 12 08:51:23 2022 GMT
            Not After : Aug 15 08:51:23 2022 GMT
        Subject: CN = QUIC Server Root CA
        Subject Public Key Info:
            Public Key Algorithm: rsaEncryption
                RSA Public-Key: (2048 bit)
                Modulus:
                    00:c1:ec:fa:6e:b1:cd:d3:b8:08:00:d1:be:f5:f5:
                    52:6b:c3:24:55:c7:99:66:05:ac:01:a1:8c:c1:db:
                    bd:50:8f:41:2d:f9:c7:a4:9e:f2:31:3d:08:27:4e:
                    7d:0e:c3:57:45:10:72:85:d0:06:24:ca:f4:73:b1:
                    d4:d0:4c:f7:59:81:b1:75:93:f3:10:5c:ea:0d:70:
                    36:c0:c7:f1:ce:3a:d3:85:56:67:fb:ca:bd:20:72:
                    e0:02:a6:97:76:72:69:91:fc:68:b9:1e:c3:ca:4b:
                    6d:80:75:fd:55:04:66:f4:9a:38:90:1c:94:53:1d:
                    29:79:26:07:02:36:5f:42:b8:7d:64:c2:58:af:95:
                    7b:44:7f:59:58:b1:bf:15:b2:ea:fd:77:d0:b4:72:
                    15:00:e5:c8:36:03:43:59:25:d4:1e:c0:53:d4:f4:
                    1a:36:c8:9d:3c:ff:a3:8d:86:2a:37:fc:d4:5e:2e:
                    6f:2f:f8:0f:dc:fd:f2:ee:48:bf:60:f4:82:18:60:
                    1c:c1:47:f9:c0:12:98:d5:50:d7:d0:d4:58:39:f1:
                    1d:92:90:8e:44:6b:ad:b1:1a:b0:33:ff:b3:9e:38:
                    d4:48:76:1a:f8:9e:4d:52:81:29:c8:a4:23:c6:c6:
                    76:7d:e1:bb:cf:14:4f:03:29:a5:a6:9e:8b:6c:55:
                    eb:b7
                Exponent: 65537 (0x10001)
        X509v3 extensions:
            X509v3 Basic Constraints: critical
                CA:TRUE
            X509v3 Subject Key Identifier: 
                2A:64:85:72:CA:66:C3:08:86:7A:80:4C:90:CF:AB:F9:47:A7:EA:A4
            X509v3 Key Usage: critical
                Certificate Sign, CRL Sign
    Signature Algorithm: sha256WithRSAEncryption
         97:86:d2:c1:55:b4:66:6f:b2:bf:a7:da:0d:6b:0c:ec:0f:7a:
         bc:c0:b3:e0:b0:bd:22:30:c8:61:f0:cc:8b:bc:f9:86:f0:63:
         1b:9e:c0:4e:7b:24:da:44:54:80:5a:9d:68:20:64:2e:1d:3a:
         0c:5c:d4:2f:d7:cb:72:95:ea:88:38:3d:17:9f:d0:c1:15:6e:
         34:4f:8a:e4:fd:cc:a4:f7:98:ca:dd:43:7a:6d:13:66:55:0a:
         d8:a9:92:fc:4f:4f:45:e0:1a:4f:1b:87:df:c6:bf:35:7f:8a:
         0e:07:7b:f7:37:e9:e5:ff:4e:b3:0d:33:cd:fd:99:68:f7:c8:
         b4:e6:2a:87:62:c0:84:ca:9b:6f:83:5f:02:42:80:08:b3:83:
         2d:e1:00:79:70:ff:28:05:b8:0c:46:a0:87:be:b4:36:7f:b1:
         80:40:08:1f:83:03:9e:0d:49:75:e4:aa:61:16:4f:74:bf:5f:
         fb:f4:8c:06:34:11:2b:f0:bf:64:7c:50:78:3f:2f:ad:d8:7a:
         af:83:7c:c0:62:33:aa:4f:cc:a6:76:08:1d:92:41:f1:cf:20:
         d6:8c:3f:80:6c:33:a2:c9:8c:cb:91:a0:4c:99:b9:ab:13:e2:
         67:7b:be:45:e4:ec:fc:55:17:3e:67:b3:6f:e0:c3:3e:64:ed:
         d7:30:2a:0b
-----BEGIN CERTIFICATE-----
MIIDDDCCAfSgAwIBAgIUDnkCtfYx8JKeFBLCUX9Yonknqd4wDQYJKoZIhvcNAQEL
BQAwHjEcMBoGA1UEAwwTUVVJQyBTZXJ2ZXIgUm9vdCBDQTAeFw0yMjA4MTIwODUx
MjNaFw0yMjA4MTUwODUxMjNaMB4xHDAaBgNVBAMME1FVSUMgU2VydmVyIFJvb3Qg
Q0EwggEiMA0GCSqGSIb3DQEBAQUAA4IBDwAwggEKAoIBAQDB7Ppusc3TuAgA0b71
9VJrwyRVx5lmBawBoYzB271Qj0Et+ceknvIxPQgnTn0Ow1dFEHKF0AYkyvRzsdTQ
TPdZgbF1k/MQXOoNcDbAx/HOOtOFVmf7yr0gcuACppd2cmmR/Gi5HsPKS22Adf1V
BGb0mjiQHJRTHSl5JgcCNl9CuH1kwlivlXtEf1lYsb8Vsur9d9C0chUA5cg2A0NZ
JdQewFPU9Bo2yJ08/6ONhio3/NReLm8v+A/c/fLuSL9g9IIYYBzBR/nAEpjVUNfQ
1Fg58R2SkI5Ea62xGrAz/7OeONRIdhr4nk1SgSnIpCPGxnZ94bvPFE8DKaWmnots
Veu3AgMBAAGjQjBAMA8GA1UdEwEB/wQFMAMBAf8wHQYDVR0OBBYEFCpkhXLKZsMI
hnqATJDPq/lHp+qkMA4GA1UdDwEB/wQEAwIBBjANBgkqhkiG9w0BAQsFAAOCAQEA
l4bSwVW0Zm+yv6faDWsM7A96vMCz4LC9IjDIYfDMi7z5hvBjG57ATnsk2kRUgFqd
aCBkLh06DFzUL9fLcpXqiDg9F5/QwRVuNE+K5P3MpPeYyt1Dem0TZlUK2KmS/E9P
ReAaTxuH38a/NX+KDgd79zfp5f9Osw0zzf2ZaPfItOYqh2LAhMqbb4NfAkKACLOD
LeEAeXD/KAW4DEagh760Nn+xgEAIH4MDng1JdeSqYRZPdL9f+/SMBjQRK/C/ZHxQ
eD8vrdh6r4N8wGIzqk/MpnYIHZJB8c8g1ow/gGwzosmMy5GgTJm5qxPiZ3u+ReTs
/FUXPmezb+DDPmTt1zAqCw==
-----END CERTIFICATE-----
