Certificate:
    Data:
        Version: 3 (0x2)
        Serial Number:
            70:a9:e5:89:0d:d1:0e:54:7a:d2:80:0c:7d:b7:40:72:64:cd:52:cb
        Signature Algorithm: sha256WithRSAEncryption
        Issuer: CN = servername
        Validity
            Not Before: Aug 24 07:08:07 2024 GMT
            Not After : Aug 19 07:08:07 2025 GMT
        Subject: CN = servername
        Subject Public Key Info:
            Public Key Algorithm: rsaEncryption
                Public-Key: (2048 bit)
                Modulus:
                    00:9e:4d:0a:11:a5:fd:64:ae:e2:a2:8e:f2:51:85:
                    a4:8f:94:9d:d8:9c:2d:20:e7:d2:c1:6a:99:03:30:
                    56:49:16:40:3a:b9:2f:c4:e0:aa:29:d8:23:9d:2c:
                    51:21:37:bd:56:03:93:e5:7d:ec:73:39:e8:47:9c:
                    d0:e5:6e:a8:37:99:5e:d3:37:b4:09:19:6b:1e:d5:
                    0e:ad:b9:ee:8f:aa:55:b1:cf:6d:b0:ef:ef:74:01:
                    79:ec:89:0d:39:d3:98:1b:17:76:fc:c6:b7:1b:f3:
                    1e:b9:24:6c:bb:29:c0:ad:35:5f:f0:1c:41:18:07:
                    6b:80:17:15:6f:fb:93:6d:2e:fc:2b:e8:b6:df:3a:
                    12:24:08:67:32:ec:24:4b:76:2a:82:b2:e5:85:da:
                    02:f3:9e:ee:40:28:df:d4:f9:96:84:93:09:dc:3e:
                    f3:7c:25:0d:eb:fc:e2:83:57:ab:07:d1:98:58:b9:
                    54:0e:af:11:41:00:47:ee:39:8b:c9:3b:d8:e4:f3:
                    8d:8f:1f:d1:53:01:0c:93:98:f4:5c:ca:45:f8:1f:
                    17:8d:c5:5c:fb:46:9b:dd:98:95:a2:24:d0:ab:e7:
                    5f:db:6c:2d:56:25:ae:77:66:cd:d7:f7:b5:11:96:
                    f9:d8:05:e8:76:c4:69:0d:16:3f:19:4e:e6:a2:cd:
                    36:1f
                Exponent: 65537 (0x10001)
        X509v3 extensions:
            X509v3 Basic Constraints: critical
                CA:TRUE
            X509v3 Subject Key Identifier: 
                6E:30:87:D4:ED:A4:1D:CD:9B:5F:F5:8A:F5:EF:C1:CD:80:C4:E2:F1
            X509v3 Key Usage: critical
                Certificate Sign, CRL Sign
    Signature Algorithm: sha256WithRSAEncryption
    Signature Value:
        0d:b7:cb:8d:ee:92:08:30:09:1c:47:cb:a6:06:90:c3:93:57:
        ef:8a:59:4b:37:d4:bc:54:8a:52:37:41:08:94:53:46:fd:a4:
        2e:99:cb:16:0b:f3:ed:e4:ac:05:75:c4:9c:1d:32:23:b2:77:
        d0:c2:06:85:a0:c6:0e:b6:98:39:c7:8f:f0:34:eb:b3:c2:84:
        ac:17:98:f1:a6:f7:46:3b:46:d2:93:29:0d:59:5c:45:39:32:
        07:84:1b:75:42:f7:e9:12:1a:e1:9e:e3:2e:43:12:50:a4:e0:
        1e:d4:fb:d4:64:42:03:2e:c2:b0:f5:05:d1:9d:70:b1:76:dc:
        53:27:68:c4:4f:30:94:1b:54:90:1b:1e:b1:3a:01:41:a7:33:
        b7:6e:07:24:26:81:5c:5a:ff:e1:cf:2e:36:2c:a8:f1:da:ad:
        b8:68:e7:0f:0b:d5:e1:b8:20:9c:62:34:cc:4a:d5:71:ee:d9:
        7c:e4:ae:07:aa:3c:29:dd:b3:f2:50:9a:50:54:a2:69:32:d7:
        3d:9b:a1:d2:02:0f:d0:41:82:6d:2e:84:1a:96:39:b2:f9:95:
        72:27:7f:5c:48:90:4f:11:7a:ad:11:00:af:45:be:c0:31:2b:
        a3:1a:aa:11:4f:93:5e:7a:b5:e4:54:10:ba:e4:ed:47:b8:a3:
        df:02:03:c9
-----BEGIN CERTIFICATE-----
MIIC+jCCAeKgAwIBAgIUcKnliQ3RDlR60oAMfbdAcmTNUsswDQYJKoZIhvcNAQEL
BQAwFTETMBEGA1UEAwwKc2VydmVybmFtZTAeFw0yNDA4MjQwNzA4MDdaFw0yNTA4
MTkwNzA4MDdaMBUxEzARBgNVBAMMCnNlcnZlcm5hbWUwggEiMA0GCSqGSIb3DQEB
AQUAA4IBDwAwggEKAoIBAQCeTQoRpf1kruKijvJRhaSPlJ3YnC0g59LBapkDMFZJ
FkA6uS/E4Kop2COdLFEhN71WA5PlfexzOehHnNDlbqg3mV7TN7QJGWse1Q6tue6P
qlWxz22w7+90AXnsiQ0505gbF3b8xrcb8x65JGy7KcCtNV/wHEEYB2uAFxVv+5Nt
Lvwr6LbfOhIkCGcy7CRLdiqCsuWF2gLznu5AKN/U+ZaEkwncPvN8JQ3r/OKDV6sH
0ZhYuVQOrxFBAEfuOYvJO9jk842PH9FTAQyTmPRcykX4HxeNxVz7RpvdmJWiJNCr
51/bbC1WJa53Zs3X97URlvnYBeh2xGkNFj8ZTuaizTYfAgMBAAGjQjBAMA8GA1Ud
EwEB/wQFMAMBAf8wHQYDVR0OBBYEFG4wh9TtpB3Nm1/1ivXvwc2AxOLxMA4GA1Ud
DwEB/wQEAwIBBjANBgkqhkiG9w0BAQsFAAOCAQEADbfLje6SCDAJHEfLpgaQw5NX
74pZSzfUvFSKUjdBCJRTRv2kLpnLFgvz7eSsBXXEnB0yI7J30MIGhaDGDraYOceP
8DTrs8KErBeY8ab3RjtG0pMpDVlcRTkyB4QbdUL36RIa4Z7jLkMSUKTgHtT71GRC
Ay7CsPUF0Z1wsXbcUydoxE8wlBtUkBsesToBQaczt24HJCaBXFr/4c8uNiyo8dqt
uGjnDwvV4bggnGI0zErVce7ZfOSuB6o8Kd2z8lCaUFSiaTLXPZuh0gIP0EGCbS6E
GpY5svmVcid/XEiQTxF6rREAr0W+wDEroxqqEU+TXnq15FQQuuTtR7ij3wIDyQ==
-----END CERTIFICATE-----
